; Function Attrs: mustprogress ssp uwtable
define void @_ZN6open3d4core10shape_util14DefaultStridesERKNS0_10SizeVectorE(ptr dead_on_unwind noalias nonnull writable sret(%"class.open3d::core::SizeVector") align 8 %0, ptr noundef nonnull readonly align 8 captures(none) dereferenceable(48) %1) local_unnamed_addr #2 personality ptr @__gxx_personality_v0 {
  %3 = getelementptr inbounds nuw i8, ptr %1, i64 8
  %4 = load i32, ptr %3, align 8, !tbaa !4
  %5 = zext i32 %4 to i64
  tail call void @_ZN6open3d4core10SizeVectorC1Ell(ptr noundef nonnull align 8 dereferenceable(48) %0, i64 noundef %5, i64 noundef 0)
  %6 = load i32, ptr %3, align 8, !tbaa !4
  %.not = icmp eq i32 %6, 0
  br i1 %.not, label %._crit_edge, label %.lr.ph

.lr.ph:                                           ; preds = %2
  %7 = zext i32 %6 to i64
  %8 = load ptr, ptr %0, align 8, !tbaa !10
  %9 = load ptr, ptr %1, align 8, !tbaa !10
  br label %10

10:                                               ; preds = %.lr.ph, %10
  %.014 = phi i64 [ 1, %.lr.ph ], [ %15, %10 ]
  %.01113 = phi i64 [ %7, %.lr.ph ], [ %11, %10 ]
  %11 = add nsw i64 %.01113, -1
  %12 = getelementptr inbounds nuw i64, ptr %8, i64 %11
  store i64 %.014, ptr %12, align 8, !tbaa !11
  %13 = getelementptr inbounds nuw i64, ptr %9, i64 %11
  %14 = load i64, ptr %13, align 8, !tbaa !11
  %.sroa.speculated = tail call i64 @llvm.smax.i64(i64 %14, i64 1)
  %15 = mul nuw nsw i64 %.sroa.speculated, %.014
  %16 = icmp samesign ugt i64 %.01113, 1
  br i1 %16, label %10, label %._crit_edge, !llvm.loop !662

._crit_edge:                                      ; preds = %10, %2
  ret void
}